; Function Attrs: null_pointer_is_valid sspstrong uwtable
define internal i32 @budb_dissect_GetDumps_request(ptr noundef %0, i32 noundef %1, ptr noundef %2, ptr noundef %3, ptr noundef %4, ptr noundef %5) #0 {
  %7 = load i32, ptr @hf_budb_GetDumps_majorVersion, align 4
  %8 = tail call i32 @dissect_ndr_uint32(ptr noundef %0, i32 noundef %1, ptr noundef %2, ptr noundef %3, ptr noundef %4, ptr noundef %5, i32 noundef %7, ptr noundef null)
  %9 = tail call i32 @dissect_deferred_pointers(ptr noundef %2, ptr noundef %0, i32 noundef %8, ptr noundef %4, ptr noundef %5)
  %10 = load i32, ptr @hf_budb_GetDumps_flags, align 4
  %11 = tail call i32 @dissect_ndr_uint32(ptr noundef %0, i32 noundef %9, ptr noundef %2, ptr noundef %3, ptr noundef %4, ptr noundef %5, i32 noundef %10, ptr noundef null)
  %12 = tail call i32 @dissect_deferred_pointers(ptr noundef %2, ptr noundef %0, i32 noundef %11, ptr noundef %4, ptr noundef %5)
  %13 = tail call i32 @dissect_ndr_toplevel_pointer(ptr noundef %0, i32 noundef %12, ptr noundef %2, ptr noundef %3, ptr noundef %4, ptr noundef %5, ptr noundef nonnull @budb_dissect_GetDumps_name, i32 noundef 3, ptr noundef nonnull @.str.4, i32 noundef -1)
  %14 = tail call i32 @dissect_deferred_pointers(ptr noundef %2, ptr noundef %0, i32 noundef %13, ptr noundef %4, ptr noundef %5)
  %15 = load i32, ptr @hf_budb_GetDumps_start, align 4
  %16 = tail call i32 @dissect_ndr_uint32(ptr noundef %0, i32 noundef %14, ptr noundef %2, ptr noundef %3, ptr noundef %4, ptr noundef %5, i32 noundef %15, ptr noundef null)
  %17 = tail call i32 @dissect_deferred_pointers(ptr noundef %2, ptr noundef %0, i32 noundef %16, ptr noundef %4, ptr noundef %5)
  %18 = load i32, ptr @hf_budb_GetDumps_end, align 4
  %19 = tail call i32 @dissect_ndr_uint32(ptr noundef %0, i32 noundef %17, ptr noundef %2, ptr noundef %3, ptr noundef %4, ptr noundef %5, i32 noundef %18, ptr noundef null)
  %20 = tail call i32 @dissect_deferred_pointers(ptr noundef %2, ptr noundef %0, i32 noundef %19, ptr noundef %4, ptr noundef %5)
  %21 = load i32, ptr @hf_budb_GetDumps_index, align 4
  %22 = tail call i32 @dissect_ndr_uint32(ptr noundef %0, i32 noundef %20, ptr noundef %2, ptr noundef %3, ptr noundef %4, ptr noundef %5, i32 noundef %21, ptr noundef null)
  %23 = tail call i32 @dissect_deferred_pointers(ptr noundef %2, ptr noundef %0, i32 noundef %22, ptr noundef %4, ptr noundef %5)
  ret i32 %23
}